target datalayout = "e-m:e-p270:32:32-p271:32:32-p272:64:64-i64:64-i128:128-f80:128-n8:16:32:64-S128"
target triple = "x86_64-pc-linux-gnu"

%struct.Abc_Frame_t_ = type { ptr, ptr, ptr, ptr, ptr, ptr, ptr, ptr, ptr, ptr, i32, i32, i32, i32, i32, ptr, float, float, i32, i32, ptr, ptr, ptr, double, double, ptr, ptr, ptr, ptr, ptr, ptr, ptr, ptr, ptr, ptr, ptr, ptr, float, ptr, i32, ptr, ptr, ptr, ptr, ptr, i32, i32, i32, i32, i32, i32, ptr, ptr, ptr, ptr, ptr, ptr, i32, i32, ptr, ptr, ptr, ptr, ptr, ptr, ptr, ptr, ptr, ptr, ptr, ptr, ptr, ptr, ptr, ptr, ptr, ptr, ptr, ptr, ptr, ptr, ptr, ptr, ptr, ptr, ptr, ptr, ptr, ptr }

@globalUtilOptind = external global i32, align 4
@.str.75 = private unnamed_addr constant [4 x i8] c"adh\00", align 1
@.str.76 = private unnamed_addr constant [28 x i8] c"usage: help [-a] [-d] [-h]\0A\00", align 1
@.str.77 = private unnamed_addr constant [55 x i8] c"       prints the list of available commands by group\0A\00", align 1
@.str.78 = private unnamed_addr constant [58 x i8] c" -a       toggle printing hidden commands [default = %s]\0A\00", align 1
@.str.79 = private unnamed_addr constant [4 x i8] c"yes\00", align 1
@.str.80 = private unnamed_addr constant [3 x i8] c"no\00", align 1
@.str.81 = private unnamed_addr constant [62 x i8] c" -d       print usage details to all commands [default = %s]\0A\00", align 1
@.str.82 = private unnamed_addr constant [35 x i8] c" -h       print the command usage\0A\00", align 1

; Function Attrs: nounwind uwtable
define internal i32 @CmdCommandHelp(ptr noundef %0, i32 noundef %1, ptr noundef %2) #0 {
  %4 = alloca i32, align 4
  %5 = alloca ptr, align 8
  %6 = alloca i32, align 4
  %7 = alloca ptr, align 8
  %8 = alloca i32, align 4
  %9 = alloca i32, align 4
  %10 = alloca i32, align 4
  store ptr %0, ptr %5, align 8
  store i32 %1, ptr %6, align 4
  store ptr %2, ptr %7, align 8
  store i32 0, ptr %8, align 4
  store i32 0, ptr %9, align 4
  call void (...) @Extra_UtilGetoptReset()
  br label %11

11:                                               ; preds = %26, %3
  %12 = load i32, ptr %6, align 4
  %13 = load ptr, ptr %7, align 8
  %14 = call i32 @Extra_UtilGetopt(i32 noundef %12, ptr noundef %13, ptr noundef @.str.75)
  store i32 %14, ptr %10, align 4
  %15 = icmp ne i32 %14, -1
  br i1 %15, label %16, label %27

16:                                               ; preds = %11
  %17 = load i32, ptr %10, align 4
  switch i32 %17, label %25 [
    i32 97, label %18
    i32 118, label %18
    i32 100, label %21
    i32 104, label %24
  ]

18:                                               ; preds = %16, %16
  %19 = load i32, ptr %8, align 4
  %20 = xor i32 %19, 1
  store i32 %20, ptr %8, align 4
  br label %26

21:                                               ; preds = %16
  %22 = load i32, ptr %9, align 4
  %23 = xor i32 %22, 1
  store i32 %23, ptr %9, align 4
  br label %26

24:                                               ; preds = %16
  br label %36

25:                                               ; preds = %16
  br label %36

26:                                               ; preds = %21, %18
  br label %11, !llvm.loop !14

27:                                               ; preds = %11
  %28 = load i32, ptr %6, align 4
  %29 = load i32, ptr @globalUtilOptind, align 4
  %30 = icmp ne i32 %28, %29
  br i1 %30, label %31, label %32

31:                                               ; preds = %27
  br label %36

32:                                               ; preds = %27
  %33 = load ptr, ptr %5, align 8
  %34 = load i32, ptr %8, align 4
  %35 = load i32, ptr %9, align 4
  call void @CmdCommandPrint(ptr noundef %33, i32 noundef %34, i32 noundef %35)
  store i32 0, ptr %4, align 4
  br label %63

36:                                               ; preds = %31, %25, %24
  %37 = load ptr, ptr %5, align 8
  %38 = getelementptr inbounds %struct.Abc_Frame_t_, ptr %37, i32 0, i32 21
  %39 = load ptr, ptr %38, align 8
  %40 = call i32 (ptr, ptr, ...) @fprintf(ptr noundef %39, ptr noundef @.str.76) #9
  %41 = load ptr, ptr %5, align 8
  %42 = getelementptr inbounds %struct.Abc_Frame_t_, ptr %41, i32 0, i32 21
  %43 = load ptr, ptr %42, align 8
  %44 = call i32 (ptr, ptr, ...) @fprintf(ptr noundef %43, ptr noundef @.str.77) #9
  %45 = load ptr, ptr %5, align 8
  %46 = getelementptr inbounds %struct.Abc_Frame_t_, ptr %45, i32 0, i32 21
  %47 = load ptr, ptr %46, align 8
  %48 = load i32, ptr %8, align 4
  %49 = icmp ne i32 %48, 0
  %50 = select i1 %49, ptr @.str.79, ptr @.str.80
  %51 = call i32 (ptr, ptr, ...) @fprintf(ptr noundef %47, ptr noundef @.str.78, ptr noundef %50) #9
  %52 = load ptr, ptr %5, align 8
  %53 = getelementptr inbounds %struct.Abc_Frame_t_, ptr %52, i32 0, i32 21
  %54 = load ptr, ptr %53, align 8
  %55 = load i32, ptr %9, align 4
  %56 = icmp ne i32 %55, 0
  %57 = select i1 %56, ptr @.str.79, ptr @.str.80
  %58 = call i32 (ptr, ptr, ...) @fprintf(ptr noundef %54, ptr noundef @.str.81, ptr noundef %57) #9
  %59 = load ptr, ptr %5, align 8
  %60 = getelementptr inbounds %struct.Abc_Frame_t_, ptr %59, i32 0, i32 21
  %61 = load ptr, ptr %60, align 8
  %62 = call i32 (ptr, ptr, ...) @fprintf(ptr noundef %61, ptr noundef @.str.82) #9
  store i32 1, ptr %4, align 4
  br label %63

63:                                               ; preds = %36, %32
  %64 = load i32, ptr %4, align 4
  ret i32 %64
}