; Function Attrs: nounwind uwtable
define internal range(i32 0, 2) i32 @CmdCommandHelp(ptr noundef %0, i32 noundef %1, ptr noundef %2) #0 {
  tail call void (...) @Extra_UtilGetoptReset() #17
  br label %.outer

.outer:                                           ; preds = %6, %3
  %.017.ph = phi i32 [ %7, %6 ], [ 0, %3 ]
  %.016.ph = phi i32 [ %.016, %6 ], [ 0, %3 ]
  br label %4

4:                                                ; preds = %.outer, %8
  %.016 = phi i32 [ %9, %8 ], [ %.016.ph, %.outer ]
  %5 = tail call i32 @Extra_UtilGetopt(i32 noundef %1, ptr noundef %2, ptr noundef nonnull @.str.75) #17
  switch i32 %5, label %.loopexit [
    i32 -1, label %10
    i32 97, label %6
    i32 118, label %6
    i32 100, label %8
  ]

6:                                                ; preds = %4, %4
  %7 = xor i32 %.017.ph, 1
  br label %.outer, !llvm.loop !14

8:                                                ; preds = %4
  %9 = xor i32 %.016, 1
  br label %4, !llvm.loop !14

10:                                               ; preds = %4
  %11 = load i32, ptr @globalUtilOptind, align 4
  %.not20 = icmp eq i32 %1, %11
  br i1 %.not20, label %12, label %.loopexit

12:                                               ; preds = %10
  tail call void @CmdCommandPrint(ptr noundef %0, i32 noundef %.017.ph, i32 noundef %.016) #17
  br label %26

.loopexit:                                        ; preds = %4, %10
  %13 = getelementptr inbounds nuw i8, ptr %0, i64 136
  %14 = load ptr, ptr %13, align 8
  %15 = tail call i64 @fwrite(ptr nonnull @.str.76, i64 27, i64 1, ptr %14)
  %16 = load ptr, ptr %13, align 8
  %17 = tail call i64 @fwrite(ptr nonnull @.str.77, i64 54, i64 1, ptr %16)
  %18 = load ptr, ptr %13, align 8
  %.not21 = icmp eq i32 %.017.ph, 0
  %19 = select i1 %.not21, ptr @.str.80, ptr @.str.79
  %20 = tail call i32 (ptr, ptr, ...) @fprintf(ptr noundef %18, ptr noundef nonnull @.str.78, ptr noundef nonnull %19) #17
  %21 = load ptr, ptr %13, align 8
  %.not22 = icmp eq i32 %.016, 0
  %22 = select i1 %.not22, ptr @.str.80, ptr @.str.79
  %23 = tail call i32 (ptr, ptr, ...) @fprintf(ptr noundef %21, ptr noundef nonnull @.str.81, ptr noundef nonnull %22) #17
  %24 = load ptr, ptr %13, align 8
  %25 = tail call i64 @fwrite(ptr nonnull @.str.82, i64 34, i64 1, ptr %24)
  br label %26

26:                                               ; preds = %.loopexit, %12
  %.0 = phi i32 [ 1, %.loopexit ], [ 0, %12 ]
  ret i32 %.0
}